; ModuleID = '22/768.c'
source_filename = "22/768.c"
target datalayout = "e-m:e-p270:32:32-p271:32:32-p272:64:64-i64:64-f80:128-n8:16:32:64-S128"
target triple = "x86_64-pc-linux-gnu"

@.str = private unnamed_addr constant [5 x i8] c"%d%c\00", align 1
@.str.1 = private unnamed_addr constant [4 x i8] c"No\0A\00", align 1
@.str.2 = private unnamed_addr constant [4 x i8] c"%d\0A\00", align 1

; Function Attrs: noinline nounwind uwtable
define dso_local i32 @main() #0 {
  %1 = alloca i32, align 4
  %2 = alloca i32, align 4
  %3 = alloca [301 x i32], align 16
  %4 = alloca i8, align 1
  %5 = alloca i64, align 8
  %6 = alloca i64, align 8
  %7 = alloca i64, align 8
  store i32 0, i32* %1, align 4
  store i32 0, i32* %2, align 4
  br label %8

8:                                                ; preds = %0, %19
  %9 = load i32, i32* %2, align 4
  %10 = sext i32 %9 to i64
  %11 = getelementptr inbounds [301 x i32], [301 x i32]* %3, i64 0, i64 %10
  %12 = call i32 (i8*, ...) @__isoc99_scanf(i8* getelementptr inbounds ([5 x i8], [5 x i8]* @.str, i64 0, i64 0), i32* %11, i8* %4)
  %13 = load i32, i32* %2, align 4
  %14 = add nsw i32 %13, 1
  store i32 %14, i32* %2, align 4
  %15 = load i8, i8* %4, align 1
  %16 = sext i8 %15 to i32
  %17 = icmp eq i32 %16, 10
  br i1 %17, label %18, label %19

18:                                               ; preds = %8
  br label %20

19:                                               ; preds = %8
  br label %8

20:                                               ; preds = %18
  %21 = load i32, i32* %2, align 4
  %22 = icmp eq i32 %21, 1
  br i1 %22, label %23, label %25

23:                                               ; preds = %20
  %24 = call i32 (i8*, ...) @printf(i8* getelementptr inbounds ([4 x i8], [4 x i8]* @.str.1, i64 0, i64 0))
  br label %82

25:                                               ; preds = %20
  store i64 0, i64* %5, align 8
  store i64 0, i64* %6, align 8
  store i64 0, i64* %7, align 8
  br label %26

26:                                               ; preds = %66, %25
  %27 = load i64, i64* %7, align 8
  %28 = load i32, i32* %2, align 4
  %29 = sub nsw i32 %28, 1
  %30 = sext i32 %29 to i64
  %31 = icmp sle i64 %27, %30
  br i1 %31, label %32, label %69

32:                                               ; preds = %26
  %33 = load i64, i64* %5, align 8
  %34 = load i64, i64* %7, align 8
  %35 = getelementptr inbounds [301 x i32], [301 x i32]* %3, i64 0, i64 %34
  %36 = load i32, i32* %35, align 4
  %37 = sext i32 %36 to i64
  %38 = icmp slt i64 %33, %37
  br i1 %38, label %39, label %45

39:                                               ; preds = %32
  %40 = load i64, i64* %5, align 8
  store i64 %40, i64* %6, align 8
  %41 = load i64, i64* %7, align 8
  %42 = getelementptr inbounds [301 x i32], [301 x i32]* %3, i64 0, i64 %41
  %43 = load i32, i32* %42, align 4
  %44 = sext i32 %43 to i64
  store i64 %44, i64* %5, align 8
  br label %65

45:                                               ; preds = %32
  %46 = load i64, i64* %5, align 8
  %47 = load i64, i64* %7, align 8
  %48 = getelementptr inbounds [301 x i32], [301 x i32]* %3, i64 0, i64 %47
  %49 = load i32, i32* %48, align 4
  %50 = sext i32 %49 to i64
  %51 = icmp sgt i64 %46, %50
  br i1 %51, label %52, label %64

52:                                               ; preds = %45
  %53 = load i64, i64* %7, align 8
  %54 = getelementptr inbounds [301 x i32], [301 x i32]* %3, i64 0, i64 %53
  %55 = load i32, i32* %54, align 4
  %56 = sext i32 %55 to i64
  %57 = load i64, i64* %6, align 8
  %58 = icmp sgt i64 %56, %57
  br i1 %58, label %59, label %64

59:                                               ; preds = %52
  %60 = load i64, i64* %7, align 8
  %61 = getelementptr inbounds [301 x i32], [301 x i32]* %3, i64 0, i64 %60
  %62 = load i32, i32* %61, align 4
  %63 = sext i32 %62 to i64
  store i64 %63, i64* %6, align 8
  br label %64

64:                                               ; preds = %59, %52, %45
  br label %65

65:                                               ; preds = %64, %39
  br label %66

66:                                               ; preds = %65
  %67 = load i64, i64* %7, align 8
  %68 = add nsw i64 %67, 1
  store i64 %68, i64* %7, align 8
  br label %26

69:                                               ; preds = %26
  %70 = load i64, i64* %5, align 8
  %71 = load i64, i64* %6, align 8
  %72 = icmp sgt i64 %70, %71
  br i1 %72, label %73, label %79

73:                                               ; preds = %69
  %74 = load i64, i64* %6, align 8
  %75 = icmp sgt i64 %74, 0
  br i1 %75, label %76, label %79

76:                                               ; preds = %73
  %77 = load i64, i64* %6, align 8
  %78 = call i32 (i8*, ...) @printf(i8* getelementptr inbounds ([4 x i8], [4 x i8]* @.str.2, i64 0, i64 0), i64 %77)
  br label %81

79:                                               ; preds = %73, %69
  %80 = call i32 (i8*, ...) @printf(i8* getelementptr inbounds ([4 x i8], [4 x i8]* @.str.1, i64 0, i64 0))
  br label %81

81:                                               ; preds = %79, %76
  br label %82

82:                                               ; preds = %81, %23
  ret i32 0
}

declare dso_local i32 @__isoc99_scanf(i8*, ...) #1

declare dso_local i32 @printf(i8*, ...) #1


!llvm.module.flags = !{!0}
!llvm.ident = !{!1}

!0 = !{i32 1, !"wchar_size", i32 4}
!1 = !{!"clang version 10.0.0-4ubuntu1 "}
